; ModuleID = '49/11.c'
source_filename = "49/11.c"
target datalayout = "e-m:e-p270:32:32-p271:32:32-p272:64:64-i64:64-f80:128-n8:16:32:64-S128"
target triple = "x86_64-pc-linux-gnu"

@.str = private unnamed_addr constant [4 x i8] c"%c\0A\00", align 1
@.str.1 = private unnamed_addr constant [3 x i8] c"%c\00", align 1

; Function Attrs: noinline nounwind uwtable
define dso_local i32 @main() #0 {
  %1 = alloca i32, align 4
  %2 = alloca i32, align 4
  %3 = alloca i32, align 4
  %4 = alloca i32, align 4
  %5 = alloca i32, align 4
  %6 = alloca i32, align 4
  %7 = alloca i32, align 4
  %8 = alloca i32, align 4
  %9 = alloca i32, align 4
  %10 = alloca i32, align 4
  %11 = alloca [100 x i8], align 16
  %12 = alloca [100 x i8], align 16
  store i32 0, i32* %1, align 4
  %13 = getelementptr inbounds [100 x i8], [100 x i8]* %11, i64 0, i64 0
  %14 = call i32 (i8*, ...) bitcast (i32 (...)* @gets to i32 (i8*, ...)*)(i8* %13)
  %15 = getelementptr inbounds [100 x i8], [100 x i8]* %11, i64 0, i64 0
  %16 = call i64 @strlen(i8* %15) #3
  %17 = trunc i64 %16 to i32
  store i32 %17, i32* %9, align 4
  store i32 2, i32* %5, align 4
  br label %18

18:                                               ; preds = %190, %0
  %19 = load i32, i32* %5, align 4
  %20 = load i32, i32* %9, align 4
  %21 = icmp slt i32 %19, %20
  br i1 %21, label %22, label %193

22:                                               ; preds = %18
  store i32 0, i32* %6, align 4
  br label %23

23:                                               ; preds = %186, %22
  %24 = load i32, i32* %6, align 4
  %25 = load i32, i32* %9, align 4
  %26 = load i32, i32* %5, align 4
  %27 = sub nsw i32 %25, %26
  %28 = icmp sle i32 %24, %27
  br i1 %28, label %29, label %189

29:                                               ; preds = %23
  %30 = load i32, i32* %6, align 4
  store i32 %30, i32* %2, align 4
  store i32 0, i32* %7, align 4
  br label %31

31:                                               ; preds = %43, %29
  %32 = load i32, i32* %7, align 4
  %33 = load i32, i32* %5, align 4
  %34 = icmp slt i32 %32, %33
  br i1 %34, label %35, label %48

35:                                               ; preds = %31
  %36 = load i32, i32* %6, align 4
  %37 = sext i32 %36 to i64
  %38 = getelementptr inbounds [100 x i8], [100 x i8]* %11, i64 0, i64 %37
  %39 = load i8, i8* %38, align 1
  %40 = load i32, i32* %7, align 4
  %41 = sext i32 %40 to i64
  %42 = getelementptr inbounds [100 x i8], [100 x i8]* %12, i64 0, i64 %41
  store i8 %39, i8* %42, align 1
  br label %43

43:                                               ; preds = %35
  %44 = load i32, i32* %7, align 4
  %45 = add nsw i32 %44, 1
  store i32 %45, i32* %7, align 4
  %46 = load i32, i32* %6, align 4
  %47 = add nsw i32 %46, 1
  store i32 %47, i32* %6, align 4
  br label %31

48:                                               ; preds = %31
  store i32 0, i32* %10, align 4
  %49 = load i32, i32* %5, align 4
  %50 = srem i32 %49, 2
  %51 = icmp eq i32 %50, 0
  br i1 %51, label %52, label %116

52:                                               ; preds = %48
  store i32 0, i32* %8, align 4
  br label %53

53:                                               ; preds = %78, %52
  %54 = load i32, i32* %8, align 4
  %55 = load i32, i32* %5, align 4
  %56 = sdiv i32 %55, 2
  %57 = icmp slt i32 %54, %56
  br i1 %57, label %58, label %81

58:                                               ; preds = %53
  %59 = load i32, i32* %8, align 4
  %60 = sext i32 %59 to i64
  %61 = getelementptr inbounds [100 x i8], [100 x i8]* %12, i64 0, i64 %60
  %62 = load i8, i8* %61, align 1
  %63 = sext i8 %62 to i32
  %64 = load i32, i32* %5, align 4
  %65 = load i32, i32* %8, align 4
  %66 = sub nsw i32 %64, %65
  %67 = sub nsw i32 %66, 1
  %68 = sext i32 %67 to i64
  %69 = getelementptr inbounds [100 x i8], [100 x i8]* %12, i64 0, i64 %68
  %70 = load i8, i8* %69, align 1
  %71 = sext i8 %70 to i32
  %72 = icmp eq i32 %63, %71
  br i1 %72, label %73, label %76

73:                                               ; preds = %58
  %74 = load i32, i32* %10, align 4
  %75 = add nsw i32 %74, 1
  store i32 %75, i32* %10, align 4
  br label %77

76:                                               ; preds = %58
  br label %81

77:                                               ; preds = %73
  br label %78

78:                                               ; preds = %77
  %79 = load i32, i32* %8, align 4
  %80 = add nsw i32 %79, 1
  store i32 %80, i32* %8, align 4
  br label %53

81:                                               ; preds = %76, %53
  %82 = load i32, i32* %10, align 4
  %83 = load i32, i32* %5, align 4
  %84 = sdiv i32 %83, 2
  %85 = icmp eq i32 %82, %84
  br i1 %85, label %86, label %115

86:                                               ; preds = %81
  store i32 0, i32* %4, align 4
  br label %87

87:                                               ; preds = %111, %86
  %88 = load i32, i32* %4, align 4
  %89 = load i32, i32* %5, align 4
  %90 = icmp slt i32 %88, %89
  br i1 %90, label %91, label %114

91:                                               ; preds = %87
  %92 = load i32, i32* %4, align 4
  %93 = load i32, i32* %5, align 4
  %94 = sub nsw i32 %93, 1
  %95 = icmp eq i32 %92, %94
  br i1 %95, label %96, label %103

96:                                               ; preds = %91
  %97 = load i32, i32* %4, align 4
  %98 = sext i32 %97 to i64
  %99 = getelementptr inbounds [100 x i8], [100 x i8]* %12, i64 0, i64 %98
  %100 = load i8, i8* %99, align 1
  %101 = sext i8 %100 to i32
  %102 = call i32 (i8*, ...) @printf(i8* getelementptr inbounds ([4 x i8], [4 x i8]* @.str, i64 0, i64 0), i32 %101)
  br label %110

103:                                              ; preds = %91
  %104 = load i32, i32* %4, align 4
  %105 = sext i32 %104 to i64
  %106 = getelementptr inbounds [100 x i8], [100 x i8]* %12, i64 0, i64 %105
  %107 = load i8, i8* %106, align 1
  %108 = sext i8 %107 to i32
  %109 = call i32 (i8*, ...) @printf(i8* getelementptr inbounds ([3 x i8], [3 x i8]* @.str.1, i64 0, i64 0), i32 %108)
  br label %110

110:                                              ; preds = %103, %96
  br label %111

111:                                              ; preds = %110
  %112 = load i32, i32* %4, align 4
  %113 = add nsw i32 %112, 1
  store i32 %113, i32* %4, align 4
  br label %87

114:                                              ; preds = %87
  br label %115

115:                                              ; preds = %114, %81
  br label %116

116:                                              ; preds = %115, %48
  %117 = load i32, i32* %5, align 4
  %118 = srem i32 %117, 2
  %119 = icmp ne i32 %118, 0
  br i1 %119, label %120, label %184

120:                                              ; preds = %116
  store i32 0, i32* %8, align 4
  br label %121

121:                                              ; preds = %146, %120
  %122 = load i32, i32* %8, align 4
  %123 = load i32, i32* %5, align 4
  %124 = sdiv i32 %123, 2
  %125 = icmp slt i32 %122, %124
  br i1 %125, label %126, label %149

126:                                              ; preds = %121
  %127 = load i32, i32* %8, align 4
  %128 = sext i32 %127 to i64
  %129 = getelementptr inbounds [100 x i8], [100 x i8]* %12, i64 0, i64 %128
  %130 = load i8, i8* %129, align 1
  %131 = sext i8 %130 to i32
  %132 = load i32, i32* %5, align 4
  %133 = load i32, i32* %8, align 4
  %134 = sub nsw i32 %132, %133
  %135 = sub nsw i32 %134, 1
  %136 = sext i32 %135 to i64
  %137 = getelementptr inbounds [100 x i8], [100 x i8]* %12, i64 0, i64 %136
  %138 = load i8, i8* %137, align 1
  %139 = sext i8 %138 to i32
  %140 = icmp eq i32 %131, %139
  br i1 %140, label %141, label %144

141:                                              ; preds = %126
  %142 = load i32, i32* %10, align 4
  %143 = add nsw i32 %142, 1
  store i32 %143, i32* %10, align 4
  br label %145

144:                                              ; preds = %126
  br label %149

145:                                              ; preds = %141
  br label %146

146:                                              ; preds = %145
  %147 = load i32, i32* %8, align 4
  %148 = add nsw i32 %147, 1
  store i32 %148, i32* %8, align 4
  br label %121

149:                                              ; preds = %144, %121
  %150 = load i32, i32* %10, align 4
  %151 = load i32, i32* %5, align 4
  %152 = sdiv i32 %151, 2
  %153 = icmp eq i32 %150, %152
  br i1 %153, label %154, label %183

154:                                              ; preds = %149
  store i32 0, i32* %4, align 4
  br label %155

155:                                              ; preds = %179, %154
  %156 = load i32, i32* %4, align 4
  %157 = load i32, i32* %5, align 4
  %158 = icmp slt i32 %156, %157
  br i1 %158, label %159, label %182

159:                                              ; preds = %155
  %160 = load i32, i32* %4, align 4
  %161 = load i32, i32* %5, align 4
  %162 = sub nsw i32 %161, 1
  %163 = icmp eq i32 %160, %162
  br i1 %163, label %164, label %171

164:                                              ; preds = %159
  %165 = load i32, i32* %4, align 4
  %166 = sext i32 %165 to i64
  %167 = getelementptr inbounds [100 x i8], [100 x i8]* %12, i64 0, i64 %166
  %168 = load i8, i8* %167, align 1
  %169 = sext i8 %168 to i32
  %170 = call i32 (i8*, ...) @printf(i8* getelementptr inbounds ([4 x i8], [4 x i8]* @.str, i64 0, i64 0), i32 %169)
  br label %178

171:                                              ; preds = %159
  %172 = load i32, i32* %4, align 4
  %173 = sext i32 %172 to i64
  %174 = getelementptr inbounds [100 x i8], [100 x i8]* %12, i64 0, i64 %173
  %175 = load i8, i8* %174, align 1
  %176 = sext i8 %175 to i32
  %177 = call i32 (i8*, ...) @printf(i8* getelementptr inbounds ([3 x i8], [3 x i8]* @.str.1, i64 0, i64 0), i32 %176)
  br label %178

178:                                              ; preds = %171, %164
  br label %179

179:                                              ; preds = %178
  %180 = load i32, i32* %4, align 4
  %181 = add nsw i32 %180, 1
  store i32 %181, i32* %4, align 4
  br label %155

182:                                              ; preds = %155
  br label %183

183:                                              ; preds = %182, %149
  br label %184

184:                                              ; preds = %183, %116
  %185 = load i32, i32* %2, align 4
  store i32 %185, i32* %6, align 4
  br label %186

186:                                              ; preds = %184
  %187 = load i32, i32* %6, align 4
  %188 = add nsw i32 %187, 1
  store i32 %188, i32* %6, align 4
  br label %23

189:                                              ; preds = %23
  br label %190

190:                                              ; preds = %189
  %191 = load i32, i32* %5, align 4
  %192 = add nsw i32 %191, 1
  store i32 %192, i32* %5, align 4
  br label %18

193:                                              ; preds = %18
  ret i32 0
}

declare dso_local i32 @gets(...) #1

; Function Attrs: nounwind readonly
declare dso_local i64 @strlen(i8*) #2

declare dso_local i32 @printf(i8*, ...) #1


!llvm.module.flags = !{!0}
!llvm.ident = !{!1}

!0 = !{i32 1, !"wchar_size", i32 4}
!1 = !{!"clang version 10.0.0-4ubuntu1 "}
